; Function Attrs: nounwind uwtable
define hidden void @UnrefPhysicalAudioDevice(ptr noundef %0) local_unnamed_addr #0 {
  %2 = getelementptr inbounds nuw i8, ptr %0, i64 16
  %3 = tail call i32 @SDL_AddAtomicInt_REAL(ptr noundef nonnull %2, i32 noundef -1) #14
  %4 = icmp eq i32 %3, 1
  br i1 %4, label %5, label %21

5:                                                ; preds = %1
  %6 = load ptr, ptr getelementptr inbounds nuw (i8, ptr @current_audio, i64 136), align 8
  tail call void @SDL_LockRWLockForWriting_REAL(ptr noundef %6) #14
  %7 = load ptr, ptr getelementptr inbounds nuw (i8, ptr @current_audio, i64 144), align 8
  %8 = getelementptr inbounds nuw i8, ptr %0, i64 80
  %9 = load i32, ptr %8, align 8
  %10 = zext i32 %9 to i64
  %11 = inttoptr i64 %10 to ptr
  %12 = tail call zeroext i1 @SDL_RemoveFromHashTable(ptr noundef %7, ptr noundef %11) #14
  br i1 %12, label %13, label %19

13:                                               ; preds = %5
  %14 = getelementptr inbounds nuw i8, ptr %0, i64 148
  %15 = load i8, ptr %14, align 4, !range !6, !noundef !7
  %16 = trunc nuw i8 %15 to i1
  %17 = select i1 %16, ptr getelementptr inbounds nuw (i8, ptr @current_audio, i64 196), ptr getelementptr inbounds nuw (i8, ptr @current_audio, i64 192)
  %18 = tail call i32 @SDL_AddAtomicInt_REAL(ptr noundef nonnull %17, i32 noundef -1) #14
  br label %19

19:                                               ; preds = %13, %5
  %20 = load ptr, ptr getelementptr inbounds nuw (i8, ptr @current_audio, i64 136), align 8
  tail call void @SDL_UnlockRWLock_REAL(ptr noundef %20) #14
  tail call fastcc void @DestroyPhysicalAudioDevice(ptr noundef nonnull %0)
  br label %21

21:                                               ; preds = %19, %1
  ret void
}